target datalayout = "e-m:e-p270:32:32-p271:32:32-p272:64:64-i64:64-i128:128-f80:128-n8:16:32:64-S128"
target triple = "x86_64-pc-linux-gnu"

@g_vowel = internal constant [3 x i8] c"\11A\10", align 1
@s_0 = internal constant [2 x i8] c"er", align 1

; Function Attrs: nounwind uwtable
define internal i32 @r_KER(ptr noundef %0) #0 {
  %2 = alloca i32, align 4
  %3 = alloca ptr, align 8
  store ptr %0, ptr %3, align 8
  %4 = load ptr, ptr %3, align 8
  %5 = call i32 @out_grouping_U(ptr noundef %4, ptr noundef @g_vowel, i32 noundef 97, i32 noundef 117, i32 noundef 0)
  %6 = icmp ne i32 %5, 0
  br i1 %6, label %7, label %8

7:                                                ; preds = %1
  store i32 0, ptr %2, align 4
  br label %14

8:                                                ; preds = %1
  %9 = load ptr, ptr %3, align 8
  %10 = call i32 @eq_s(ptr noundef %9, i32 noundef 2, ptr noundef @s_0)
  %11 = icmp ne i32 %10, 0
  br i1 %11, label %13, label %12

12:                                               ; preds = %8
  store i32 0, ptr %2, align 4
  br label %14

13:                                               ; preds = %8
  store i32 1, ptr %2, align 4
  br label %14

14:                                               ; preds = %13, %12, %7
  %15 = load i32, ptr %2, align 4
  ret i32 %15
}